ARM GAS  C:\Users\MARCOD~1\AppData\Local\Temp\cc2N1Wt3.s 			page 1


   1              		.syntax unified
   2              		.cpu cortex-m3
   3              		.fpu softvfp
   4              		.eabi_attribute 20, 1
   5              		.eabi_attribute 21, 1
   6              		.eabi_attribute 23, 3
   7              		.eabi_attribute 24, 1
   8              		.eabi_attribute 25, 1
   9              		.eabi_attribute 26, 1
  10              		.eabi_attribute 30, 1
  11              		.eabi_attribute 34, 1
  12              		.eabi_attribute 18, 4
  13              		.thumb
  14              		.syntax unified
  15              		.file	"Calibration.c"
  16              		.text
  17              	.Ltext0:
  18              		.cfi_sections	.debug_frame
  19              		.global	__aeabi_i2f
  20              		.global	__aeabi_fmul
  21              		.global	__aeabi_fdiv
  22              		.global	__aeabi_f2iz
  23              		.global	__aeabi_fadd
  24              		.global	__aeabi_i2d
  25              		.global	__aeabi_dadd
  26              		.global	__aeabi_fsub
  27              		.global	__aeabi_dmul
  28              		.global	__aeabi_f2d
  29              		.global	__aeabi_dsub
  30              		.global	__aeabi_d2f
  31              		.global	__aeabi_ddiv
  32              		.section	.text.FindCoefficeint,"ax",%progbits
  33              		.align	2
  34              		.global	FindCoefficeint
  35              		.thumb
  36              		.thumb_func
  37              		.type	FindCoefficeint, %function
  38              	FindCoefficeint:
  39              	.LFB64:
  40              		.file 1 "Calibration.c"
   1:Calibration.c **** /* ========================================
   2:Calibration.c ****  *
   3:Calibration.c ****  * Copyright YOUR COMPANY, THE YEAR
   4:Calibration.c ****  * All Rights Reserved
   5:Calibration.c ****  * UNPUBLISHED, LICENSED SOFTWARE.
   6:Calibration.c ****  *
   7:Calibration.c ****  * CONFIDENTIAL AND PROPRIETARY INFORMATION
   8:Calibration.c ****  * WHICH IS THE PROPERTY OF your company.
   9:Calibration.c ****  *
  10:Calibration.c ****  * ========================================
  11:Calibration.c **** */
  12:Calibration.c **** #include "Calibration.h"
  13:Calibration.c **** #include "project.h"
  14:Calibration.c **** 
  15:Calibration.c **** #define SIZE_ARRAY_CALIB 19 //Number of elements for linear regression
  16:Calibration.c **** 
  17:Calibration.c **** int8 c_index = 0;
ARM GAS  C:\Users\MARCOD~1\AppData\Local\Temp\cc2N1Wt3.s 			page 2


  18:Calibration.c **** int32 value_digit_calib;
  19:Calibration.c **** float32 value_mv_calib;
  20:Calibration.c **** int32 Output_Calib_Array[SIZE_ARRAY_CALIB];
  21:Calibration.c **** float32 x_sum = 0;
  22:Calibration.c **** float32 y_sum = 0;
  23:Calibration.c **** float64 x2_sum = 0;
  24:Calibration.c **** float32 x_y_sum = 0;
  25:Calibration.c **** float32 den = 0;
  26:Calibration.c **** 
  27:Calibration.c **** Coeff FindCoefficeint(){
  41              		.loc 1 27 0
  42              		.cfi_startproc
  43              		@ args = 0, pretend = 0, frame = 64
  44              		@ frame_needed = 0, uses_anonymous_args = 0
  45              	.LVL0:
  46 0000 2DE9F047 		push	{r4, r5, r6, r7, r8, r9, r10, lr}
  47              		.cfi_def_cfa_offset 32
  48              		.cfi_offset 4, -32
  49              		.cfi_offset 5, -28
  50              		.cfi_offset 6, -24
  51              		.cfi_offset 7, -20
  52              		.cfi_offset 8, -16
  53              		.cfi_offset 9, -12
  54              		.cfi_offset 10, -8
  55              		.cfi_offset 14, -4
  56 0004 90B0     		sub	sp, sp, #64
  57              		.cfi_def_cfa_offset 96
  58 0006 8246     		mov	r10, r0
  28:Calibration.c ****     
  29:Calibration.c ****     //Current values in hexadecimal to be loaded into the IDAC (31,875 : 255 = value_µA : x)
  30:Calibration.c ****     uint8 Calib_current_array[] = {75, 67, 59, 51, 43, 35, 26, 18, 10, 0, 10, 18, 26, 35, 43, 51, 5
  59              		.loc 1 30 0
  60 0008 AB4C     		ldr	r4, .L15
  61 000a 0BAD     		add	r5, sp, #44
  62 000c 2068     		ldr	r0, [r4]	@ unaligned
  63              	.LVL1:
  64 000e 6168     		ldr	r1, [r4, #4]	@ unaligned
  65 0010 A268     		ldr	r2, [r4, #8]	@ unaligned
  66 0012 E368     		ldr	r3, [r4, #12]	@ unaligned
  67 0014 0FC5     		stmia	r5!, {r0, r1, r2, r3}
  68 0016 228A     		ldrh	r2, [r4, #16]	@ unaligned
  69 0018 A37C     		ldrb	r3, [r4, #18]	@ zero_extendqisi2
  70 001a 2A80     		strh	r2, [r5]	@ unaligned
  71 001c AB70     		strb	r3, [r5, #2]
  31:Calibration.c ****     //Expected µA values
  32:Calibration.c ****     int16 Decimal_current_array[] = {9, 8, 7, 6, 5, 4, 3, 2, 1, 0, 1, 2, 3, 4, 5, 6, 7, 8, 9};
  72              		.loc 1 32 0
  73 001e 04F11405 		add	r5, r4, #20
  74 0022 01AF     		add	r7, sp, #4
  75 0024 3434     		adds	r4, r4, #52
  76              	.L2:
  77 0026 3E46     		mov	r6, r7
  78 0028 2868     		ldr	r0, [r5]	@ unaligned
  79 002a 6968     		ldr	r1, [r5, #4]	@ unaligned
  80 002c AA68     		ldr	r2, [r5, #8]	@ unaligned
  81 002e EB68     		ldr	r3, [r5, #12]	@ unaligned
  82 0030 0FC6     		stmia	r6!, {r0, r1, r2, r3}
ARM GAS  C:\Users\MARCOD~1\AppData\Local\Temp\cc2N1Wt3.s 			page 3


  83 0032 1035     		adds	r5, r5, #16
  84 0034 3746     		mov	r7, r6
  85 0036 A542     		cmp	r5, r4
  86 0038 F5D1     		bne	.L2
  87 003a 2868     		ldr	r0, [r5]	@ unaligned
  88 003c 3060     		str	r0, [r6]	@ unaligned
  89 003e AB88     		ldrh	r3, [r5, #4]	@ unaligned
  90 0040 B380     		strh	r3, [r6, #4]	@ unaligned
  33:Calibration.c ****     
  34:Calibration.c ****     IDAC_Calibration_Start();
  91              		.loc 1 34 0
  92 0042 FFF7FEFF 		bl	IDAC_Calibration_Start
  93              	.LVL2:
  35:Calibration.c ****     IDAC_Calibration_SetPolarity(IDAC_Calibration_SINK); 
  94              		.loc 1 35 0
  95 0046 0420     		movs	r0, #4
  96 0048 FFF7FEFF 		bl	IDAC_Calibration_SetPolarity
  97              	.LVL3:
  36:Calibration.c ****     AMux_Cur_Select(1);
  98              		.loc 1 36 0
  99 004c 0120     		movs	r0, #1
 100 004e FFF7FEFF 		bl	AMux_Cur_Select
 101              	.LVL4:
  37:Calibration.c ****     
  38:Calibration.c ****     Coeff ret;
  39:Calibration.c ****     //Offset = b*measured current + a
  40:Calibration.c ****     float32 a = 0;
  41:Calibration.c ****     float32 b = 0;
  42:Calibration.c ****     
  43:Calibration.c ****     for(c_index=0; c_index<SIZE_ARRAY_CALIB; c_index++){
 102              		.loc 1 43 0
 103 0052 0022     		movs	r2, #0
 104 0054 994B     		ldr	r3, .L15+4
 105 0056 1A70     		strb	r2, [r3]
 106 0058 56E0     		b	.L3
 107              	.L9:
 108              	.LBB2:
  44:Calibration.c ****         /*
  45:Calibration.c ****         One element at a time of the array Calib_current_array[] is loaded into IDAC, the first ten
  46:Calibration.c ****         in SINK mode and then in SOURCE mode. For each element, the corresopnding current value is 
  47:Calibration.c ****         measured and the offset with respect to the expected value is stored in the array Output_Ca
  48:Calibration.c ****         */
  49:Calibration.c ****         if(c_index > 9){
 109              		.loc 1 49 0
 110 005a 092B     		cmp	r3, #9
 111 005c 05DD     		ble	.L4
  50:Calibration.c ****             IDAC_Calibration_SetPolarity(IDAC_Calibration_SOURCE);
 112              		.loc 1 50 0
 113 005e 0020     		movs	r0, #0
 114 0060 FFF7FEFF 		bl	IDAC_Calibration_SetPolarity
 115              	.LVL5:
  51:Calibration.c ****             CyDelay(5);
 116              		.loc 1 51 0
 117 0064 0520     		movs	r0, #5
 118 0066 FFF7FEFF 		bl	CyDelay
 119              	.LVL6:
 120              	.L4:
ARM GAS  C:\Users\MARCOD~1\AppData\Local\Temp\cc2N1Wt3.s 			page 4


  52:Calibration.c ****         }
  53:Calibration.c ****         
  54:Calibration.c ****         IDAC_Calibration_SetValue(Calib_current_array[c_index]);
 121              		.loc 1 54 0
 122 006a 944B     		ldr	r3, .L15+4
 123 006c 93F90030 		ldrsb	r3, [r3]
 124 0070 10AA     		add	r2, sp, #64
 125 0072 1344     		add	r3, r3, r2
 126 0074 13F8140C 		ldrb	r0, [r3, #-20]	@ zero_extendqisi2
 127 0078 FFF7FEFF 		bl	IDAC_Calibration_SetValue
 128              	.LVL7:
  55:Calibration.c ****         CyDelay(5); //Delay to set the current
 129              		.loc 1 55 0
 130 007c 0520     		movs	r0, #5
 131 007e FFF7FEFF 		bl	CyDelay
 132              	.LVL8:
  56:Calibration.c ****         
  57:Calibration.c ****         value_digit_calib = ADC_DelSig_Read32();
 133              		.loc 1 57 0
 134 0082 FFF7FEFF 		bl	ADC_DelSig_Read32
 135              	.LVL9:
 136 0086 8E4B     		ldr	r3, .L15+8
 137 0088 1860     		str	r0, [r3]
  58:Calibration.c ****         if(value_digit_calib < -65535)    value_digit_calib = -65535;
 138              		.loc 1 58 0
 139 008a 10F5803F 		cmn	r0, #65536
 140 008e 01DC     		bgt	.L5
 141              		.loc 1 58 0 is_stmt 0 discriminator 1
 142 0090 8C4A     		ldr	r2, .L15+12
 143 0092 1A60     		str	r2, [r3]
 144              	.L5:
  59:Calibration.c ****         if(value_digit_calib > 65535)     value_digit_calib = 65535;
 145              		.loc 1 59 0 is_stmt 1
 146 0094 8A4B     		ldr	r3, .L15+8
 147 0096 1B68     		ldr	r3, [r3]
 148 0098 B3F5803F 		cmp	r3, #65536
 149 009c 03DB     		blt	.L6
 150              		.loc 1 59 0 is_stmt 0 discriminator 1
 151 009e 4FF6FF72 		movw	r2, #65535
 152 00a2 874B     		ldr	r3, .L15+8
 153 00a4 1A60     		str	r2, [r3]
 154              	.L6:
  60:Calibration.c ****         value_mv_calib = ADC_DelSig_CountsTo_mVolts(value_digit_calib);
 155              		.loc 1 60 0 is_stmt 1
 156 00a6 864B     		ldr	r3, .L15+8
 157 00a8 1868     		ldr	r0, [r3]
 158 00aa FFF7FEFF 		bl	ADC_DelSig_CountsTo_mVolts
 159              	.LVL10:
 160 00ae FFF7FEFF 		bl	__aeabi_i2f
 161              	.LVL11:
 162 00b2 854B     		ldr	r3, .L15+16
 163 00b4 1860     		str	r0, [r3]	@ float
  61:Calibration.c ****         int32 I_read = (value_mv_calib*1000000)/R_TIA; //Cuurent in nA
 164              		.loc 1 61 0
 165 00b6 8549     		ldr	r1, .L15+20
 166 00b8 FFF7FEFF 		bl	__aeabi_fmul
 167              	.LVL12:
ARM GAS  C:\Users\MARCOD~1\AppData\Local\Temp\cc2N1Wt3.s 			page 5


 168 00bc 8449     		ldr	r1, .L15+24
 169 00be FFF7FEFF 		bl	__aeabi_fdiv
 170              	.LVL13:
 171 00c2 FFF7FEFF 		bl	__aeabi_f2iz
 172              	.LVL14:
  62:Calibration.c ****         
  63:Calibration.c ****         if(c_index <= 9){
 173              		.loc 1 63 0
 174 00c6 7D4B     		ldr	r3, .L15+4
 175 00c8 93F90030 		ldrsb	r3, [r3]
 176 00cc 092B     		cmp	r3, #9
 177 00ce 0ADC     		bgt	.L7
  64:Calibration.c ****             Output_Calib_Array[c_index] = I_read - (Decimal_current_array[c_index]*1000);
 178              		.loc 1 64 0
 179 00d0 10AA     		add	r2, sp, #64
 180 00d2 02EB4302 		add	r2, r2, r3, lsl #1
 181 00d6 32F93C2C 		ldrsh	r2, [r2, #-60]
 182 00da 7E49     		ldr	r1, .L15+28
 183 00dc 01FB0202 		mla	r2, r1, r2, r0
 184 00e0 7D49     		ldr	r1, .L15+32
 185 00e2 41F82320 		str	r2, [r1, r3, lsl #2]
 186              	.L7:
  65:Calibration.c ****         }
  66:Calibration.c ****         if(c_index > 9){
 187              		.loc 1 66 0
 188 00e6 092B     		cmp	r3, #9
 189 00e8 0BDD     		ble	.L8
  67:Calibration.c ****             Output_Calib_Array[c_index] = I_read + (Decimal_current_array[c_index]*1000);
 190              		.loc 1 67 0
 191 00ea 10AA     		add	r2, sp, #64
 192 00ec 02EB4302 		add	r2, r2, r3, lsl #1
 193 00f0 32F93C2C 		ldrsh	r2, [r2, #-60]
 194 00f4 4FF47A71 		mov	r1, #1000
 195 00f8 01FB0200 		mla	r0, r1, r2, r0
 196              	.LVL15:
 197 00fc 764A     		ldr	r2, .L15+32
 198 00fe 42F82300 		str	r0, [r2, r3, lsl #2]
 199              	.L8:
 200              	.LBE2:
  43:Calibration.c ****         /*
 201              		.loc 1 43 0 discriminator 2
 202 0102 0133     		adds	r3, r3, #1
 203 0104 6D4A     		ldr	r2, .L15+4
 204 0106 1370     		strb	r3, [r2]
 205              	.L3:
  43:Calibration.c ****         /*
 206              		.loc 1 43 0 is_stmt 0 discriminator 1
 207 0108 6C4B     		ldr	r3, .L15+4
 208 010a 93F90030 		ldrsb	r3, [r3]
 209 010e 122B     		cmp	r3, #18
 210 0110 A3DD     		ble	.L9
  68:Calibration.c ****         }
  69:Calibration.c ****     }
  70:Calibration.c ****     
  71:Calibration.c ****     //Parameter calculation to derive the coefficients a and b
  72:Calibration.c ****     for(c_index=0; c_index<SIZE_ARRAY_CALIB/2; c_index++){
 211              		.loc 1 72 0 is_stmt 1
ARM GAS  C:\Users\MARCOD~1\AppData\Local\Temp\cc2N1Wt3.s 			page 6


 212 0112 0022     		movs	r2, #0
 213 0114 694B     		ldr	r3, .L15+4
 214 0116 1A70     		strb	r2, [r3]
 215 0118 32E0     		b	.L10
 216              	.L11:
  73:Calibration.c ****         x_sum = x_sum + Decimal_current_array[c_index]*1000;
 217              		.loc 1 73 0 discriminator 3
 218 011a 10AB     		add	r3, sp, #64
 219 011c 03EB4503 		add	r3, r3, r5, lsl #1
 220 0120 33F93C7C 		ldrsh	r7, [r3, #-60]
 221 0124 4FF47A78 		mov	r8, #1000
 222 0128 08FB07F0 		mul	r0, r8, r7
 223 012c FFF7FEFF 		bl	__aeabi_i2f
 224              	.LVL16:
 225 0130 624C     		ldr	r4, .L15+4
 226 0132 6168     		ldr	r1, [r4, #4]	@ float
 227 0134 FFF7FEFF 		bl	__aeabi_fadd
 228              	.LVL17:
 229 0138 6060     		str	r0, [r4, #4]	@ float
  74:Calibration.c ****         y_sum = y_sum + Output_Calib_Array[c_index];
 230              		.loc 1 74 0 discriminator 3
 231 013a 674B     		ldr	r3, .L15+32
 232 013c 53F82560 		ldr	r6, [r3, r5, lsl #2]
 233 0140 3046     		mov	r0, r6
 234 0142 FFF7FEFF 		bl	__aeabi_i2f
 235              	.LVL18:
 236 0146 A168     		ldr	r1, [r4, #8]	@ float
 237 0148 FFF7FEFF 		bl	__aeabi_fadd
 238              	.LVL19:
 239 014c A060     		str	r0, [r4, #8]	@ float
  75:Calibration.c ****         x2_sum = x2_sum + ((Decimal_current_array[c_index]*Decimal_current_array[c_index])*1000000)
 240              		.loc 1 75 0 discriminator 3
 241 014e 07FB07F3 		mul	r3, r7, r7
 242 0152 6248     		ldr	r0, .L15+36
 243 0154 00FB03F0 		mul	r0, r0, r3
 244 0158 FFF7FEFF 		bl	__aeabi_i2d
 245              	.LVL20:
 246 015c D4E90423 		ldrd	r2, [r4, #16]
 247 0160 FFF7FEFF 		bl	__aeabi_dadd
 248              	.LVL21:
 249 0164 C4E90401 		strd	r0, [r4, #16]
  76:Calibration.c ****         x_y_sum = x_y_sum + (Decimal_current_array[c_index]*Output_Calib_Array[c_index]*1000);   
 250              		.loc 1 76 0 discriminator 3
 251 0168 06FB07F0 		mul	r0, r6, r7
 252 016c 08FB00F0 		mul	r0, r8, r0
 253 0170 FFF7FEFF 		bl	__aeabi_i2f
 254              	.LVL22:
 255 0174 A169     		ldr	r1, [r4, #24]	@ float
 256 0176 FFF7FEFF 		bl	__aeabi_fadd
 257              	.LVL23:
 258 017a A061     		str	r0, [r4, #24]	@ float
  72:Calibration.c ****         x_sum = x_sum + Decimal_current_array[c_index]*1000;
 259              		.loc 1 72 0 discriminator 3
 260 017c 0135     		adds	r5, r5, #1
 261 017e 2570     		strb	r5, [r4]
 262              	.L10:
  72:Calibration.c ****         x_sum = x_sum + Decimal_current_array[c_index]*1000;
ARM GAS  C:\Users\MARCOD~1\AppData\Local\Temp\cc2N1Wt3.s 			page 7


 263              		.loc 1 72 0 is_stmt 0 discriminator 1
 264 0180 4E4B     		ldr	r3, .L15+4
 265 0182 93F90050 		ldrsb	r5, [r3]
 266 0186 082D     		cmp	r5, #8
 267 0188 C7DD     		ble	.L11
  77:Calibration.c ****     }
  78:Calibration.c ****     for(c_index=(SIZE_ARRAY_CALIB/2)+1; c_index<SIZE_ARRAY_CALIB; c_index++){
 268              		.loc 1 78 0 is_stmt 1
 269 018a 0A22     		movs	r2, #10
 270 018c 1A70     		strb	r2, [r3]
 271 018e 34E0     		b	.L12
 272              	.L13:
  79:Calibration.c ****         x_sum = x_sum - Decimal_current_array[c_index]*1000;
 273              		.loc 1 79 0 discriminator 3
 274 0190 10AB     		add	r3, sp, #64
 275 0192 03EB4603 		add	r3, r3, r6, lsl #1
 276 0196 33F93C5C 		ldrsh	r5, [r3, #-60]
 277 019a 4FF47A77 		mov	r7, #1000
 278 019e 474C     		ldr	r4, .L15+4
 279 01a0 07FB05F0 		mul	r0, r7, r5
 280 01a4 FFF7FEFF 		bl	__aeabi_i2f
 281              	.LVL24:
 282 01a8 0146     		mov	r1, r0
 283 01aa 6068     		ldr	r0, [r4, #4]	@ float
 284 01ac FFF7FEFF 		bl	__aeabi_fsub
 285              	.LVL25:
 286 01b0 6060     		str	r0, [r4, #4]	@ float
  80:Calibration.c ****         y_sum = y_sum + Output_Calib_Array[c_index];
 287              		.loc 1 80 0 discriminator 3
 288 01b2 494B     		ldr	r3, .L15+32
 289 01b4 53F82680 		ldr	r8, [r3, r6, lsl #2]
 290 01b8 4046     		mov	r0, r8
 291 01ba FFF7FEFF 		bl	__aeabi_i2f
 292              	.LVL26:
 293 01be A168     		ldr	r1, [r4, #8]	@ float
 294 01c0 FFF7FEFF 		bl	__aeabi_fadd
 295              	.LVL27:
 296 01c4 A060     		str	r0, [r4, #8]	@ float
  81:Calibration.c ****         x2_sum = x2_sum + ((Decimal_current_array[c_index]*Decimal_current_array[c_index])*1000000)
 297              		.loc 1 81 0 discriminator 3
 298 01c6 05FB05F3 		mul	r3, r5, r5
 299 01ca 4448     		ldr	r0, .L15+36
 300 01cc 00FB03F0 		mul	r0, r0, r3
 301 01d0 FFF7FEFF 		bl	__aeabi_i2d
 302              	.LVL28:
 303 01d4 D4E90423 		ldrd	r2, [r4, #16]
 304 01d8 FFF7FEFF 		bl	__aeabi_dadd
 305              	.LVL29:
 306 01dc C4E90401 		strd	r0, [r4, #16]
  82:Calibration.c ****         x_y_sum = x_y_sum + (-Decimal_current_array[c_index]*Output_Calib_Array[c_index]*1000);   
 307              		.loc 1 82 0 discriminator 3
 308 01e0 6842     		negs	r0, r5
 309 01e2 00FB08F0 		mul	r0, r0, r8
 310 01e6 07FB00F0 		mul	r0, r7, r0
 311 01ea FFF7FEFF 		bl	__aeabi_i2f
 312              	.LVL30:
 313 01ee A169     		ldr	r1, [r4, #24]	@ float
ARM GAS  C:\Users\MARCOD~1\AppData\Local\Temp\cc2N1Wt3.s 			page 8


 314 01f0 FFF7FEFF 		bl	__aeabi_fadd
 315              	.LVL31:
 316 01f4 A061     		str	r0, [r4, #24]	@ float
  78:Calibration.c ****         x_sum = x_sum - Decimal_current_array[c_index]*1000;
 317              		.loc 1 78 0 discriminator 3
 318 01f6 0136     		adds	r6, r6, #1
 319 01f8 2670     		strb	r6, [r4]
 320              	.L12:
  78:Calibration.c ****         x_sum = x_sum - Decimal_current_array[c_index]*1000;
 321              		.loc 1 78 0 is_stmt 0 discriminator 1
 322 01fa 304B     		ldr	r3, .L15+4
 323 01fc 93F90060 		ldrsb	r6, [r3]
 324 0200 122E     		cmp	r6, #18
 325 0202 C5DD     		ble	.L13
  83:Calibration.c ****     }
  84:Calibration.c ****     
  85:Calibration.c ****     den = (SIZE_ARRAY_CALIB*x2_sum)-(x_sum*x_sum); //Denominator of the formula for a and b
 326              		.loc 1 85 0 is_stmt 1
 327 0204 1C46     		mov	r4, r3
 328 0206 D3E90467 		ldrd	r6, [r3, #16]
 329 020a 0022     		movs	r2, #0
 330 020c 344B     		ldr	r3, .L15+40
 331 020e 3046     		mov	r0, r6
 332 0210 3946     		mov	r1, r7
 333 0212 FFF7FEFF 		bl	__aeabi_dmul
 334              	.LVL32:
 335 0216 8046     		mov	r8, r0
 336 0218 8946     		mov	r9, r1
 337 021a 6568     		ldr	r5, [r4, #4]	@ float
 338 021c 2946     		mov	r1, r5
 339 021e 2846     		mov	r0, r5
 340 0220 FFF7FEFF 		bl	__aeabi_fmul
 341              	.LVL33:
 342 0224 FFF7FEFF 		bl	__aeabi_f2d
 343              	.LVL34:
 344 0228 0246     		mov	r2, r0
 345 022a 0B46     		mov	r3, r1
 346 022c 4046     		mov	r0, r8
 347 022e 4946     		mov	r1, r9
 348 0230 FFF7FEFF 		bl	__aeabi_dsub
 349              	.LVL35:
 350 0234 FFF7FEFF 		bl	__aeabi_d2f
 351              	.LVL36:
 352 0238 8046     		mov	r8, r0
 353 023a E061     		str	r0, [r4, #28]	@ float
  86:Calibration.c ****     a = ((y_sum*x2_sum)-(x_sum*x_y_sum))/den;
 354              		.loc 1 86 0
 355 023c D4F80890 		ldr	r9, [r4, #8]	@ float
 356 0240 4846     		mov	r0, r9
 357 0242 FFF7FEFF 		bl	__aeabi_f2d
 358              	.LVL37:
 359 0246 3246     		mov	r2, r6
 360 0248 3B46     		mov	r3, r7
 361 024a FFF7FEFF 		bl	__aeabi_dmul
 362              	.LVL38:
 363 024e 0646     		mov	r6, r0
 364 0250 0F46     		mov	r7, r1
ARM GAS  C:\Users\MARCOD~1\AppData\Local\Temp\cc2N1Wt3.s 			page 9


 365 0252 A469     		ldr	r4, [r4, #24]	@ float
 366 0254 2146     		mov	r1, r4
 367 0256 2846     		mov	r0, r5
 368 0258 FFF7FEFF 		bl	__aeabi_fmul
 369              	.LVL39:
 370 025c FFF7FEFF 		bl	__aeabi_f2d
 371              	.LVL40:
 372 0260 0246     		mov	r2, r0
 373 0262 0B46     		mov	r3, r1
 374 0264 3046     		mov	r0, r6
 375 0266 3946     		mov	r1, r7
 376 0268 FFF7FEFF 		bl	__aeabi_dsub
 377              	.LVL41:
 378 026c 0646     		mov	r6, r0
 379 026e 0F46     		mov	r7, r1
 380 0270 4046     		mov	r0, r8
 381 0272 FFF7FEFF 		bl	__aeabi_f2d
 382              	.LVL42:
 383 0276 0246     		mov	r2, r0
 384 0278 0B46     		mov	r3, r1
 385 027a 3046     		mov	r0, r6
 386 027c 3946     		mov	r1, r7
 387 027e FFF7FEFF 		bl	__aeabi_ddiv
 388              	.LVL43:
 389 0282 FFF7FEFF 		bl	__aeabi_d2f
 390              	.LVL44:
 391 0286 0646     		mov	r6, r0
 392              	.LVL45:
  87:Calibration.c ****     b = ((SIZE_ARRAY_CALIB*x_y_sum)-(x_sum*y_sum))/den;
 393              		.loc 1 87 0
 394 0288 1649     		ldr	r1, .L15+44
 395 028a 2046     		mov	r0, r4
 396              	.LVL46:
 397 028c FFF7FEFF 		bl	__aeabi_fmul
 398              	.LVL47:
 399 0290 0446     		mov	r4, r0
 400 0292 4946     		mov	r1, r9
 401 0294 2846     		mov	r0, r5
 402 0296 FFF7FEFF 		bl	__aeabi_fmul
 403              	.LVL48:
 404 029a 0146     		mov	r1, r0
 405 029c 2046     		mov	r0, r4
 406 029e FFF7FEFF 		bl	__aeabi_fsub
 407              	.LVL49:
 408 02a2 4146     		mov	r1, r8
 409 02a4 FFF7FEFF 		bl	__aeabi_fdiv
 410              	.LVL50:
  88:Calibration.c **** 
  89:Calibration.c ****     ret.first = a;
 411              		.loc 1 89 0
 412 02a8 CAF80060 		str	r6, [r10]	@ float
  90:Calibration.c ****     ret.second = b;
 413              		.loc 1 90 0
 414 02ac CAF80400 		str	r0, [r10, #4]	@ float
  91:Calibration.c ****     
  92:Calibration.c ****     return ret;
  93:Calibration.c **** }
ARM GAS  C:\Users\MARCOD~1\AppData\Local\Temp\cc2N1Wt3.s 			page 10


 415              		.loc 1 93 0
 416 02b0 5046     		mov	r0, r10
 417              	.LVL51:
 418 02b2 10B0     		add	sp, sp, #64
 419              		.cfi_def_cfa_offset 32
 420              		@ sp needed
 421 02b4 BDE8F087 		pop	{r4, r5, r6, r7, r8, r9, r10, pc}
 422              	.LVL52:
 423              	.L16:
 424              		.align	2
 425              	.L15:
 426 02b8 00000000 		.word	.LANCHOR0
 427 02bc 00000000 		.word	.LANCHOR1
 428 02c0 00000000 		.word	value_digit_calib
 429 02c4 0100FFFF 		.word	-65535
 430 02c8 00000000 		.word	value_mv_calib
 431 02cc 00247449 		.word	1232348160
 432 02d0 0060EA47 		.word	1206542336
 433 02d4 18FCFFFF 		.word	-1000
 434 02d8 00000000 		.word	Output_Calib_Array
 435 02dc 40420F00 		.word	1000000
 436 02e0 00003340 		.word	1077084160
 437 02e4 00009841 		.word	1100480512
 438              		.cfi_endproc
 439              	.LFE64:
 440              		.size	FindCoefficeint, .-FindCoefficeint
 441              		.global	den
 442              		.global	x_y_sum
 443              		.global	x2_sum
 444              		.global	y_sum
 445              		.global	x_sum
 446              		.comm	Output_Calib_Array,76,4
 447              		.comm	value_mv_calib,4,4
 448              		.comm	value_digit_calib,4,4
 449              		.global	c_index
 450              		.section	.rodata
 451              		.align	2
 452              		.set	.LANCHOR0,. + 0
 453              	.LC0:
 454 0000 4B       		.byte	75
 455 0001 43       		.byte	67
 456 0002 3B       		.byte	59
 457 0003 33       		.byte	51
 458 0004 2B       		.byte	43
 459 0005 23       		.byte	35
 460 0006 1A       		.byte	26
 461 0007 12       		.byte	18
 462 0008 0A       		.byte	10
 463 0009 00       		.byte	0
 464 000a 0A       		.byte	10
 465 000b 12       		.byte	18
 466 000c 1A       		.byte	26
 467 000d 23       		.byte	35
 468 000e 2B       		.byte	43
 469 000f 33       		.byte	51
 470 0010 3B       		.byte	59
 471 0011 43       		.byte	67
ARM GAS  C:\Users\MARCOD~1\AppData\Local\Temp\cc2N1Wt3.s 			page 11


 472 0012 4B       		.byte	75
 473 0013 00       		.space	1
 474              	.LC1:
 475 0014 0900     		.short	9
 476 0016 0800     		.short	8
 477 0018 0700     		.short	7
 478 001a 0600     		.short	6
 479 001c 0500     		.short	5
 480 001e 0400     		.short	4
 481 0020 0300     		.short	3
 482 0022 0200     		.short	2
 483 0024 0100     		.short	1
 484 0026 0000     		.short	0
 485 0028 0100     		.short	1
 486 002a 0200     		.short	2
 487 002c 0300     		.short	3
 488 002e 0400     		.short	4
 489 0030 0500     		.short	5
 490 0032 0600     		.short	6
 491 0034 0700     		.short	7
 492 0036 0800     		.short	8
 493 0038 0900     		.short	9
 494              		.bss
 495              		.align	3
 496              		.set	.LANCHOR1,. + 0
 497              		.type	c_index, %object
 498              		.size	c_index, 1
 499              	c_index:
 500 0000 00       		.space	1
 501 0001 000000   		.space	3
 502              		.type	x_sum, %object
 503              		.size	x_sum, 4
 504              	x_sum:
 505 0004 00000000 		.space	4
 506              		.type	y_sum, %object
 507              		.size	y_sum, 4
 508              	y_sum:
 509 0008 00000000 		.space	4
 510 000c 00000000 		.space	4
 511              		.type	x2_sum, %object
 512              		.size	x2_sum, 8
 513              	x2_sum:
 514 0010 00000000 		.space	8
 514      00000000 
 515              		.type	x_y_sum, %object
 516              		.size	x_y_sum, 4
 517              	x_y_sum:
 518 0018 00000000 		.space	4
 519              		.type	den, %object
 520              		.size	den, 4
 521              	den:
 522 001c 00000000 		.space	4
 523              		.text
 524              	.Letext0:
 525              		.file 2 "c:\\program files (x86)\\cypress\\psoc creator\\4.4\\psoc creator\\import\\gnu\\arm\\5.4.
 526              		.file 3 "c:\\program files (x86)\\cypress\\psoc creator\\4.4\\psoc creator\\import\\gnu\\arm\\5.4.
 527              		.file 4 "Generated_Source\\PSoC5/cytypes.h"
ARM GAS  C:\Users\MARCOD~1\AppData\Local\Temp\cc2N1Wt3.s 			page 12


 528              		.file 5 "Calibration.h"
 529              		.file 6 "Generated_Source\\PSoC5/core_cm3.h"
 530              		.file 7 "Generated_Source\\PSoC5/IDAC_Calibration.h"
 531              		.file 8 "Generated_Source\\PSoC5/CyLib.h"
 532              		.file 9 "Generated_Source\\PSoC5/ADC_DelSig.h"
 533              		.file 10 "Generated_Source\\PSoC5/AMux_Cur.h"