ARM GAS  C:\Users\MARCOD~1\AppData\Local\Temp\ccAg2drb.s 			page 1


   1              		.syntax unified
   2              		.cpu cortex-m3
   3              		.fpu softvfp
   4              		.eabi_attribute 20, 1
   5              		.eabi_attribute 21, 1
   6              		.eabi_attribute 23, 3
   7              		.eabi_attribute 24, 1
   8              		.eabi_attribute 25, 1
   9              		.eabi_attribute 26, 1
  10              		.eabi_attribute 30, 1
  11              		.eabi_attribute 34, 1
  12              		.eabi_attribute 18, 4
  13              		.thumb
  14              		.syntax unified
  15              		.file	"VoltageControl.c"
  16              		.text
  17              	.Ltext0:
  18              		.cfi_sections	.debug_frame
  19              		.section	.text.Custom_ISR_CV,"ax",%progbits
  20              		.align	2
  21              		.global	Custom_ISR_CV
  22              		.thumb
  23              		.thumb_func
  24              		.type	Custom_ISR_CV, %function
  25              	Custom_ISR_CV:
  26              	.LFB64:
  27              		.file 1 "VoltageControl.c"
   1:VoltageControl.c **** /* ========================================
   2:VoltageControl.c ****  *
   3:VoltageControl.c ****  * Copyright YOUR COMPANY, THE YEAR
   4:VoltageControl.c ****  * All Rights Reserved
   5:VoltageControl.c ****  * UNPUBLISHED, LICENSED SOFTWARE.
   6:VoltageControl.c ****  *
   7:VoltageControl.c ****  * CONFIDENTIAL AND PROPRIETARY INFORMATION
   8:VoltageControl.c ****  * WHICH IS THE PROPERTY OF your company.
   9:VoltageControl.c ****  *
  10:VoltageControl.c ****  * ========================================
  11:VoltageControl.c **** */
  12:VoltageControl.c **** #include "VoltageControl.h"
  13:VoltageControl.c **** #include "InterruptRoutines.h"
  14:VoltageControl.c **** #include "InterruptUART.h"
  15:VoltageControl.c **** #include "Rx_Hn.h"
  16:VoltageControl.c **** #include "project.h"
  17:VoltageControl.c **** 
  18:VoltageControl.c **** 
  19:VoltageControl.c **** uint8 Flag_Limit = 0;
  20:VoltageControl.c **** uint16 Value_mV = 0;
  21:VoltageControl.c **** uint8 value = 0; 
  22:VoltageControl.c **** uint8 Flag_Period = 0;
  23:VoltageControl.c **** uint8 Flag_Measure = 0;
  24:VoltageControl.c **** 
  25:VoltageControl.c **** /*
  26:VoltageControl.c **** Function that creates the triangular shape of the applied potential. 
  27:VoltageControl.c **** Starting from the initil value set by the user, the virtual mass id added
  28:VoltageControl.c **** and then a step potential of 3 mV until the maximum value set, after
  29:VoltageControl.c **** which the direction of the potential is reversed. Two period are repeted.
  30:VoltageControl.c **** */
ARM GAS  C:\Users\MARCOD~1\AppData\Local\Temp\ccAg2drb.s 			page 2


  31:VoltageControl.c **** 
  32:VoltageControl.c **** CY_ISR(Custom_ISR_CV)
  33:VoltageControl.c **** {
  28              		.loc 1 33 0
  29              		.cfi_startproc
  30              		@ args = 0, pretend = 0, frame = 0
  31              		@ frame_needed = 0, uses_anonymous_args = 0
  34:VoltageControl.c **** 
  35:VoltageControl.c ****  if ((Start_Measure == 1) & (Flag_CV == 1))
  32              		.loc 1 35 0
  33 0000 204B     		ldr	r3, .L7
  34 0002 1A78     		ldrb	r2, [r3]	@ zero_extendqisi2
  35 0004 204B     		ldr	r3, .L7+4
  36 0006 1B78     		ldrb	r3, [r3]	@ zero_extendqisi2
  37 0008 012A     		cmp	r2, #1
  38 000a 08BF     		it	eq
  39 000c 012B     		cmpeq	r3, #1
  40 000e 37D1     		bne	.L6
  33:VoltageControl.c **** 
  41              		.loc 1 33 0
  42 0010 10B5     		push	{r4, lr}
  43              		.cfi_def_cfa_offset 8
  44              		.cfi_offset 4, -8
  45              		.cfi_offset 14, -4
  36:VoltageControl.c ****     {
  37:VoltageControl.c ****        if(value == 0){
  46              		.loc 1 37 0
  47 0012 1E4B     		ldr	r3, .L7+8
  48 0014 1B78     		ldrb	r3, [r3]	@ zero_extendqisi2
  49 0016 3BB9     		cbnz	r3, .L3
  38:VoltageControl.c ****             Value_mV = 2000 + Neg_Pot;
  50              		.loc 1 38 0
  51 0018 1C4A     		ldr	r2, .L7+8
  52 001a 1D4B     		ldr	r3, .L7+12
  53 001c 1B88     		ldrh	r3, [r3]
  54 001e 03F5FA63 		add	r3, r3, #2000
  55 0022 5380     		strh	r3, [r2, #2]	@ movhi
  39:VoltageControl.c ****             value = 1;
  56              		.loc 1 39 0
  57 0024 0123     		movs	r3, #1
  58 0026 1370     		strb	r3, [r2]
  59              	.L3:
  40:VoltageControl.c ****        }
  41:VoltageControl.c ****     
  42:VoltageControl.c ****        DVDAC_SetV_SetValue(Value_mV); 
  60              		.loc 1 42 0
  61 0028 184C     		ldr	r4, .L7+8
  62 002a 6088     		ldrh	r0, [r4, #2]
  63 002c FFF7FEFF 		bl	DVDAC_SetV_SetValue
  64              	.LVL0:
  43:VoltageControl.c ****        Flag_Measure = 1;
  65              		.loc 1 43 0
  66 0030 0123     		movs	r3, #1
  67 0032 2371     		strb	r3, [r4, #4]
  44:VoltageControl.c ****     
  45:VoltageControl.c ****        //sprintf(DataBuffer6, "%hd\r\n", Value_mV);
  46:VoltageControl.c ****        //UART_PutString(DataBuffer6);
ARM GAS  C:\Users\MARCOD~1\AppData\Local\Temp\ccAg2drb.s 			page 3


  47:VoltageControl.c ****    
  48:VoltageControl.c ****         if(Flag_Limit == 0){
  68              		.loc 1 48 0
  69 0034 6379     		ldrb	r3, [r4, #5]	@ zero_extendqisi2
  70 0036 63B9     		cbnz	r3, .L4
  49:VoltageControl.c ****             Value_mV -= 3;
  71              		.loc 1 49 0
  72 0038 6388     		ldrh	r3, [r4, #2]
  73 003a 033B     		subs	r3, r3, #3
  74 003c 9BB2     		uxth	r3, r3
  75 003e 6380     		strh	r3, [r4, #2]	@ movhi
  50:VoltageControl.c ****             if(Value_mV < (2000 + Pos_Pot)){
  76              		.loc 1 50 0
  77 0040 144A     		ldr	r2, .L7+16
  78 0042 B2F90020 		ldrsh	r2, [r2]
  79 0046 02F5FA62 		add	r2, r2, #2000
  80 004a 9342     		cmp	r3, r2
  81 004c 01DA     		bge	.L4
  51:VoltageControl.c ****                 Flag_Limit = 1;
  82              		.loc 1 51 0
  83 004e 0122     		movs	r2, #1
  84 0050 6271     		strb	r2, [r4, #5]
  85              	.L4:
  52:VoltageControl.c ****             }
  53:VoltageControl.c ****         }
  54:VoltageControl.c ****             
  55:VoltageControl.c ****         if(Flag_Limit == 1){
  86              		.loc 1 55 0
  87 0052 0E4B     		ldr	r3, .L7+8
  88 0054 5B79     		ldrb	r3, [r3, #5]	@ zero_extendqisi2
  89 0056 012B     		cmp	r3, #1
  90 0058 11D1     		bne	.L1
  56:VoltageControl.c ****             Value_mV = Value_mV + 3;
  91              		.loc 1 56 0
  92 005a 0C4A     		ldr	r2, .L7+8
  93 005c 5388     		ldrh	r3, [r2, #2]
  94 005e 0333     		adds	r3, r3, #3
  95 0060 9BB2     		uxth	r3, r3
  96 0062 5380     		strh	r3, [r2, #2]	@ movhi
  57:VoltageControl.c ****             if(Value_mV >= (2000 + Neg_Pot)){
  97              		.loc 1 57 0
  98 0064 0A4A     		ldr	r2, .L7+12
  99 0066 B2F90020 		ldrsh	r2, [r2]
 100 006a 02F5FA62 		add	r2, r2, #2000
 101 006e 9342     		cmp	r3, r2
 102 0070 05DB     		blt	.L1
  58:VoltageControl.c ****                 Flag_Limit = 0;
 103              		.loc 1 58 0
 104 0072 064B     		ldr	r3, .L7+8
 105 0074 0022     		movs	r2, #0
 106 0076 5A71     		strb	r2, [r3, #5]
  59:VoltageControl.c ****                 Flag_Period ++;
 107              		.loc 1 59 0
 108 0078 9A79     		ldrb	r2, [r3, #6]	@ zero_extendqisi2
 109 007a 0132     		adds	r2, r2, #1
 110 007c 9A71     		strb	r2, [r3, #6]
 111              	.L1:
ARM GAS  C:\Users\MARCOD~1\AppData\Local\Temp\ccAg2drb.s 			page 4


 112 007e 10BD     		pop	{r4, pc}
 113              	.L6:
 114              		.cfi_def_cfa_offset 0
 115              		.cfi_restore 4
 116              		.cfi_restore 14
 117 0080 7047     		bx	lr
 118              	.L8:
 119 0082 00BF     		.align	2
 120              	.L7:
 121 0084 00000000 		.word	Start_Measure
 122 0088 00000000 		.word	Flag_CV
 123 008c 00000000 		.word	.LANCHOR0
 124 0090 00000000 		.word	Neg_Pot
 125 0094 00000000 		.word	Pos_Pot
 126              		.cfi_endproc
 127              	.LFE64:
 128              		.size	Custom_ISR_CV, .-Custom_ISR_CV
 129              		.comm	Flag_Two_Period,1,1
 130              		.comm	Flag_One_Period,1,1
 131              		.comm	Flag_Fifty,1,1
 132              		.comm	Flag_Hundred,1,1
 133              		.comm	Flag_Programmed,1,1
 134              		.comm	Flag_DataCrono,1,1
 135              		.comm	Flag_Crono,1,1
 136              		.comm	Flag_CV,1,1
 137              		.comm	Pot_Range,2,2
 138              		.comm	Crono_Pot,2,2
 139              		.comm	Pos_Pot,2,2
 140              		.comm	Neg_Pot,2,2
 141              		.comm	Stop,1,1
 142              		.comm	Flag_SetV,1,1
 143              		.comm	StartCalibration,1,1
 144              		.comm	Received_Ar,4,4
 145              		.comm	Flag_Hn,1,1
 146              		.comm	Start_Measure,1,1
 147              		.comm	DataBuffer6,64,4
 148              		.comm	DataBuffer,4,4
 149              		.global	value
 150              		.global	Flag_Measure
 151              		.global	Value_mV
 152              		.global	Flag_Limit
 153              		.global	Flag_Period
 154              		.comm	BufferDataSend,10664,4
 155              		.bss
 156              		.align	1
 157              		.set	.LANCHOR0,. + 0
 158              		.type	value, %object
 159              		.size	value, 1
 160              	value:
 161 0000 00       		.space	1
 162 0001 00       		.space	1
 163              		.type	Value_mV, %object
 164              		.size	Value_mV, 2
 165              	Value_mV:
 166 0002 0000     		.space	2
 167              		.type	Flag_Measure, %object
 168              		.size	Flag_Measure, 1
ARM GAS  C:\Users\MARCOD~1\AppData\Local\Temp\ccAg2drb.s 			page 5


 169              	Flag_Measure:
 170 0004 00       		.space	1
 171              		.type	Flag_Limit, %object
 172              		.size	Flag_Limit, 1
 173              	Flag_Limit:
 174 0005 00       		.space	1
 175              		.type	Flag_Period, %object
 176              		.size	Flag_Period, 1
 177              	Flag_Period:
 178 0006 00       		.space	1
 179              		.text
 180              	.Letext0:
 181              		.file 2 "c:\\program files (x86)\\cypress\\psoc creator\\4.4\\psoc creator\\import\\gnu\\arm\\5.4.
 182              		.file 3 "c:\\program files (x86)\\cypress\\psoc creator\\4.4\\psoc creator\\import\\gnu\\arm\\5.4.
 183              		.file 4 "Generated_Source\\PSoC5/cytypes.h"
 184              		.file 5 "VoltageControl.h"
 185              		.file 6 "InterruptRoutines.h"
 186              		.file 7 "InterruptUART.h"
 187              		.file 8 "Rx_Hn.h"
 188              		.file 9 "Generated_Source\\PSoC5/core_cm3.h"
 189              		.file 10 "Generated_Source\\PSoC5/DVDAC_SetV.h"